; Function Attrs: mustprogress nofree norecurse nosync nounwind willreturn memory(argmem: readwrite) uwtable
define hidden void @_ZN11hwf_manager7minimumERK3hwfS2_RS0_(ptr noundef nonnull readnone align 8 captures(none) dereferenceable(736) %0, ptr noundef nonnull readonly align 8 captures(none) dereferenceable(8) %1, ptr noundef nonnull readonly align 8 captures(none) dereferenceable(8) %2, ptr noundef nonnull writeonly align 8 captures(none) dereferenceable(8) initializes((0, 8)) %3) local_unnamed_addr #8 align 2 {
  %5 = load i64, ptr %1, align 8
  %6 = and i64 %5, 9218868437227405312
  %7 = icmp eq i64 %6, 9218868437227405312
  %8 = and i64 %5, 4503599627370495
  %9 = icmp ne i64 %8, 0
  %10 = and i1 %7, %9
  %11 = bitcast i64 %5 to double
  br i1 %10, label %12, label %14

12:                                               ; preds = %4
  %13 = load double, ptr %2, align 8, !tbaa !13
  store double %13, ptr %3, align 8, !tbaa !13
  br label %27

14:                                               ; preds = %4
  %15 = load i64, ptr %2, align 8
  %16 = and i64 %15, 9218868437227405312
  %17 = icmp eq i64 %16, 9218868437227405312
  %18 = and i64 %15, 4503599627370495
  %19 = icmp ne i64 %18, 0
  %20 = and i1 %17, %19
  br i1 %20, label %21, label %22

21:                                               ; preds = %14
  store i64 %5, ptr %3, align 8, !tbaa !13
  br label %27

22:                                               ; preds = %14
  %23 = bitcast i64 %15 to double
  %24 = fcmp olt double %11, %23
  br i1 %24, label %25, label %26

25:                                               ; preds = %22
  store i64 %5, ptr %3, align 8, !tbaa !13
  br label %27

26:                                               ; preds = %22
  store i64 %15, ptr %3, align 8, !tbaa !13
  br label %27

27:                                               ; preds = %21, %26, %25, %12
  ret void
}